(lp0
(lp1
F0.6553870328023387
aF0.18232377603767574
aF0.31579404352506346
aF0.0
aa(lp2
F0.0
aF0.649519052838329
aF-0.37499999999999994
aF-0.5
aa(lp3
F-0.36464755207535154
aF0.3276935164011693
aF0.5675818197177305
aF0.0
aa(lp4
F0.0
aF0.0
aF0.0
aF1.0
aa.